; Function Attrs: mustprogress uwtable
define internal void @_ZNK6google8protobuf8compiler3cpp12_GLOBAL__N_117RepeatedPrimitive29GenerateMemberCopyConstructorEPNS0_2io7PrinterE(ptr nocapture noundef nonnull readonly align 8 dereferenceable(104) %this, ptr noundef nonnull %p) unnamed_addr #3 align 2 {
entry:
  tail call void @_ZN6google8protobuf2io7Printer4EmitEN4absl12lts_202308024SpanIKNS2_3SubEEESt17basic_string_viewIcSt11char_traitsIcEENS2_14SourceLocationE(ptr noundef nonnull align 8 dereferenceable(256) %p, ptr null, i64 0, i64 40, ptr nonnull @.str.77)
  %call = tail call fastcc noundef zeroext i1 @_ZNK6google8protobuf8compiler3cpp12_GLOBAL__N_117RepeatedPrimitive13HasCachedSizeEv(ptr noundef nonnull align 8 dereferenceable(104) %this)
  br i1 %call, label %if.then, label %if.end

if.then:                                          ; preds = %entry
  tail call void @_ZN6google8protobuf2io7Printer4EmitEN4absl12lts_202308024SpanIKNS2_3SubEEESt17basic_string_viewIcSt11char_traitsIcEENS2_14SourceLocationE(ptr noundef nonnull align 8 dereferenceable(256) %p, ptr null, i64 0, i64 30, ptr nonnull @.str.75)
  br label %if.end

if.end:                                           ; preds = %if.then, %entry
  ret void
}